target datalayout = "e-m:e-p270:32:32-p271:32:32-p272:64:64-i64:64-i128:128-f80:128-n8:16:32:64-S128"
target triple = "x86_64-pc-linux-gnu"

%class.anon = type { i8 }

@.str.4 = private unnamed_addr constant [15 x i8] c"open3d::Tensor\00", align 1

; Function Attrs: inlinehint mustprogress ssp uwtable
define internal void @"_ZZN6open3d4core15TensorToPyArrayERKNS0_6TensorEENK3$_0clEP7_object"(ptr noundef nonnull align 1 dereferenceable(1) %0, ptr noundef %1) #8 align 2 !type !2795 {
  %3 = alloca ptr, align 8
  %4 = alloca ptr, align 8
  %5 = alloca ptr, align 8
  store ptr %0, ptr %3, align 8, !tbaa !192
  store ptr %1, ptr %4, align 8, !tbaa !218
  call void @llvm.lifetime.start.p0(i64 8, ptr %5) #26
  %6 = load ptr, ptr %4, align 8, !tbaa !218
  %7 = call ptr @PyCapsule_GetPointer(ptr noundef %6, ptr noundef @.str.4)
  store ptr %7, ptr %5, align 8, !tbaa !154
  %8 = load ptr, ptr %5, align 8, !tbaa !154
  %9 = icmp ne ptr %8, null
  br i1 %9, label %10, label %18

10:                                               ; preds = %2
  %11 = load ptr, ptr %5, align 8, !tbaa !154
  %12 = icmp eq ptr %11, null
  br i1 %12, label %17, label %13

13:                                               ; preds = %10
  %14 = load ptr, ptr %11, align 8, !tbaa !164
  %15 = getelementptr inbounds ptr, ptr %14, i64 1
  %16 = load ptr, ptr %15, align 8
  call void %16(ptr noundef nonnull align 8 dereferenceable(160) %11) #26
  br label %17

17:                                               ; preds = %13, %10
  br label %19

18:                                               ; preds = %2
  call void @PyErr_Clear()
  br label %19

19:                                               ; preds = %18, %17
  call void @llvm.lifetime.end.p0(i64 8, ptr %5) #26
  ret void
}

; Function Attrs: inlinehint mustprogress ssp uwtable
define internal void @"_ZZN6open3d4core15TensorToPyArrayERKNS0_6TensorEEN3$_08__invokeEP7_object"(ptr noundef %0) #8 align 2 {
  %2 = alloca ptr, align 8
  %3 = alloca %class.anon, align 1
  store ptr %0, ptr %2, align 8, !tbaa !218
  %4 = load ptr, ptr %2, align 8, !tbaa !218
  call void @"_ZZN6open3d4core15TensorToPyArrayERKNS0_6TensorEENK3$_0clEP7_object"(ptr noundef nonnull align 1 dereferenceable(1) %3, ptr noundef %4)
  ret void
}