; Function Attrs: inlinehint mustprogress ssp uwtable
define internal void @"_ZZN6open3d4core15TensorToPyArrayERKNS0_6TensorEEN3$_08__invokeEP7_object"(ptr noundef %0) #13 align 2 {
  %2 = tail call ptr @PyCapsule_GetPointer(ptr noundef %0, ptr noundef nonnull @.str.4)
  %.not.i = icmp eq ptr %2, null
  br i1 %.not.i, label %7, label %3

3:                                                ; preds = %1
  %4 = load ptr, ptr %2, align 8, !tbaa !135
  %5 = getelementptr inbounds nuw i8, ptr %4, i64 8
  %6 = load ptr, ptr %5, align 8
  tail call void %6(ptr noundef nonnull align 8 dereferenceable(160) %2) #33
  br label %"_ZZN6open3d4core15TensorToPyArrayERKNS0_6TensorEENK3$_0clEP7_object.exit"

7:                                                ; preds = %1
  tail call void @PyErr_Clear()
  br label %"_ZZN6open3d4core15TensorToPyArrayERKNS0_6TensorEENK3$_0clEP7_object.exit"

"_ZZN6open3d4core15TensorToPyArrayERKNS0_6TensorEENK3$_0clEP7_object.exit": ; preds = %3, %7
  ret void
}